; Function Attrs: mustprogress uwtable
define void @_ZN7xgboost6metric14GPUBinaryPRAUCEPKNS_7ContextENS_6common4SpanIKfLm18446744073709551615EEERKNS_8MetaInfoEPSt10shared_ptrINS0_14DeviceAUCCacheEE(ptr dead_on_unwind noalias writable writeonly sret(%"class.std::tuple") align 8 captures(none) %0, ptr noundef readnone captures(none) %1, i64 %2, ptr readnone captures(none) %3, ptr noundef nonnull readnone align 8 captures(none) dereferenceable(233) %4, ptr noundef readnone captures(none) %5) local_unnamed_addr #4 personality ptr @__gxx_personality_v0 {
  %7 = alloca %"class.dmlc::LogMessageFatal", align 1
  call void @llvm.lifetime.start.p0(i64 1, ptr nonnull %7) #14
  %8 = call noundef nonnull align 8 dereferenceable(376) ptr @_ZN4dmlc15LogMessageFatal8GetEntryEv(ptr noundef nonnull align 1 dereferenceable(1) %7)
  call void @_ZN4dmlc15LogMessageFatal5Entry4InitEPKci(ptr noundef nonnull align 8 dereferenceable(376) %8, ptr noundef nonnull @.str.27, i32 noundef 168)
  %9 = invoke noundef nonnull align 8 dereferenceable(376) ptr @_ZN4dmlc15LogMessageFatal8GetEntryEv(ptr noundef nonnull align 1 dereferenceable(1) %7)
          to label %_ZN4dmlc15LogMessageFatal6streamB5cxx11Ev.exit.i unwind label %11

_ZN4dmlc15LogMessageFatal6streamB5cxx11Ev.exit.i: ; preds = %6
  %10 = invoke noundef nonnull align 8 dereferenceable(8) ptr @_ZSt16__ostream_insertIcSt11char_traitsIcEERSt13basic_ostreamIT_T0_ES6_PKS3_l(ptr noundef nonnull align 8 dereferenceable(8) %9, ptr noundef nonnull @.str.28, i64 noundef 46)
          to label %_ZN7xgboost6common16AssertGPUSupportEv.exit unwind label %11

11:                                               ; preds = %_ZN4dmlc15LogMessageFatal6streamB5cxx11Ev.exit.i, %6
  %12 = landingpad { ptr, i32 }
          cleanup
  invoke void @_ZN4dmlc15LogMessageFatalD2Ev(ptr noundef nonnull align 1 dereferenceable(1) %7)
          to label %13 unwind label %14

13:                                               ; preds = %11
  call void @llvm.lifetime.end.p0(i64 1, ptr nonnull %7) #14
  resume { ptr, i32 } %12

14:                                               ; preds = %11
  %15 = landingpad { ptr, i32 }
          catch ptr null
  %16 = extractvalue { ptr, i32 } %15, 0
  call void @__clang_call_terminate(ptr %16) #38
  unreachable

_ZN7xgboost6common16AssertGPUSupportEv.exit:      ; preds = %_ZN4dmlc15LogMessageFatal6streamB5cxx11Ev.exit.i
  call void @_ZN4dmlc15LogMessageFatalD2Ev(ptr noundef nonnull align 1 dereferenceable(1) %7)
  call void @llvm.lifetime.end.p0(i64 1, ptr nonnull %7) #14
  call void @llvm.memset.p0.i64(ptr noundef nonnull align 8 dereferenceable(24) %0, i8 0, i64 24, i1 false)
  ret void
}